; ModuleID = 'source-C-CXX/25/1.c'
source_filename = "source-C-CXX/25/1.c"
target datalayout = "e-m:e-p270:32:32-p271:32:32-p272:64:64-i64:64-f80:128-n8:16:32:64-S128"
target triple = "x86_64-pc-linux-gnu"

; Function Attrs: nounwind sspstrong uwtable
define dso_local i32 @main() local_unnamed_addr #0 {
  %1 = alloca [101 x i8], align 16
  %2 = alloca [101 x i8], align 16
  %3 = getelementptr inbounds [101 x i8], [101 x i8]* %1, i64 0, i64 0
  call void @llvm.lifetime.start.p0i8(i64 101, i8* nonnull %3) #5
  %4 = getelementptr inbounds [101 x i8], [101 x i8]* %2, i64 0, i64 0
  call void @llvm.lifetime.start.p0i8(i64 101, i8* nonnull %4) #5
  %5 = call i32 (i8*, ...) bitcast (i32 (...)* @gets to i32 (i8*, ...)*)(i8* nonnull %3) #5
  %6 = load i8, i8* %3, align 16, !tbaa !5
  %7 = call i64 @strlen(i8* noundef nonnull %3) #6
  %8 = trunc i64 %7 to i32
  %9 = icmp sgt i32 %8, 0
  br i1 %9, label %10, label %32

10:                                               ; preds = %0
  %11 = and i64 %7, 4294967295
  br label %12

12:                                               ; preds = %29, %10
  %13 = phi i8 [ %6, %10 ], [ %31, %29 ]
  %14 = phi i64 [ 0, %10 ], [ %27, %29 ]
  %15 = phi i32 [ 0, %10 ], [ %26, %29 ]
  %16 = phi i8 [ %6, %10 ], [ %25, %29 ]
  %17 = icmp eq i8 %16, 32
  %18 = icmp eq i8 %13, 32
  %19 = and i1 %17, %18
  br i1 %19, label %24, label %20

20:                                               ; preds = %12
  %21 = add nsw i32 %15, 1
  %22 = sext i32 %15 to i64
  %23 = getelementptr inbounds [101 x i8], [101 x i8]* %2, i64 0, i64 %22
  store i8 %13, i8* %23, align 1, !tbaa !5
  br label %24

24:                                               ; preds = %12, %20
  %25 = phi i8 [ %13, %20 ], [ 32, %12 ]
  %26 = phi i32 [ %21, %20 ], [ %15, %12 ]
  %27 = add nuw nsw i64 %14, 1
  %28 = icmp eq i64 %27, %11
  br i1 %28, label %32, label %29, !llvm.loop !8

29:                                               ; preds = %24
  %30 = getelementptr inbounds [101 x i8], [101 x i8]* %1, i64 0, i64 %27
  %31 = load i8, i8* %30, align 1, !tbaa !5
  br label %12

32:                                               ; preds = %24, %0
  %33 = phi i32 [ 0, %0 ], [ %26, %24 ]
  %34 = sext i32 %33 to i64
  %35 = getelementptr inbounds [101 x i8], [101 x i8]* %2, i64 0, i64 %34
  store i8 0, i8* %35, align 1, !tbaa !5
  %36 = call i32 @puts(i8* nonnull %4)
  call void @llvm.lifetime.end.p0i8(i64 101, i8* nonnull %4) #5
  call void @llvm.lifetime.end.p0i8(i64 101, i8* nonnull %3) #5
  ret i32 0
}

; Function Attrs: argmemonly mustprogress nofree nosync nounwind willreturn
declare void @llvm.lifetime.start.p0i8(i64 immarg, i8* nocapture) #1

declare i32 @gets(...) local_unnamed_addr #2

; Function Attrs: argmemonly mustprogress nofree nounwind readonly willreturn
declare i64 @strlen(i8* nocapture) local_unnamed_addr #3

; Function Attrs: argmemonly mustprogress nofree nosync nounwind willreturn
declare void @llvm.lifetime.end.p0i8(i64 immarg, i8* nocapture) #1

; Function Attrs: nofree nounwind
declare noundef i32 @puts(i8* nocapture noundef readonly) local_unnamed_addr #4


!llvm.module.flags = !{!0, !1, !2, !3}
!llvm.ident = !{!4}

!0 = !{i32 1, !"wchar_size", i32 4}
!1 = !{i32 7, !"PIC Level", i32 2}
!2 = !{i32 7, !"PIE Level", i32 2}
!3 = !{i32 7, !"uwtable", i32 1}
!4 = !{!"clang version 13.0.0"}
!5 = !{!6, !6, i64 0}
!6 = !{!"omnipotent char", !7, i64 0}
!7 = !{!"Simple C/C++ TBAA"}
!8 = distinct !{!8, !9}
!9 = !{!"llvm.loop.mustprogress"}
